target datalayout = "e-m:e-p270:32:32-p271:32:32-p272:64:64-i64:64-i128:128-f80:128-n8:16:32:64-S128"
target triple = "x86_64-pc-linux-gnu"

%struct.stbtt__buf = type { ptr, i32, i32 }
%struct.stbtt_fontinfo = type { ptr, ptr, i32, i32, i32, i32, i32, i32, i32, i32, i32, i32, i32, i32, %struct.stbtt__buf, %struct.stbtt__buf, %struct.stbtt__buf, %struct.stbtt__buf, %struct.stbtt__buf, %struct.stbtt__buf }

; Function Attrs: nounwind uwtable
define zeroext i16 @ttUSHORT(ptr noundef %0) #0 {
  %2 = alloca ptr, align 8
  store ptr %0, ptr %2, align 8, !tbaa !25
  %3 = load ptr, ptr %2, align 8, !tbaa !25
  %4 = getelementptr inbounds i8, ptr %3, i64 0
  %5 = load i8, ptr %4, align 1, !tbaa !13
  %6 = zext i8 %5 to i32
  %7 = mul nsw i32 %6, 256
  %8 = load ptr, ptr %2, align 8, !tbaa !25
  %9 = getelementptr inbounds i8, ptr %8, i64 1
  %10 = load i8, ptr %9, align 1, !tbaa !13
  %11 = zext i8 %10 to i32
  %12 = add nsw i32 %7, %11
  %13 = trunc i32 %12 to i16
  ret i16 %13
}

; Function Attrs: nounwind uwtable
define float @stbtt_ScaleForMappingEmToPixels(ptr noundef %0, float noundef %1) #0 {
  %3 = alloca ptr, align 8
  %4 = alloca float, align 4
  %5 = alloca i32, align 4
  store ptr %0, ptr %3, align 8, !tbaa !28
  store float %1, ptr %4, align 4, !tbaa !67
  call void @llvm.lifetime.start.p0(i64 4, ptr %5) #8
  %6 = load ptr, ptr %3, align 8, !tbaa !28
  %7 = getelementptr inbounds nuw %struct.stbtt_fontinfo, ptr %6, i32 0, i32 1
  %8 = load ptr, ptr %7, align 8, !tbaa !32
  %9 = load ptr, ptr %3, align 8, !tbaa !28
  %10 = getelementptr inbounds nuw %struct.stbtt_fontinfo, ptr %9, i32 0, i32 5
  %11 = load i32, ptr %10, align 4, !tbaa !35
  %12 = sext i32 %11 to i64
  %13 = getelementptr inbounds i8, ptr %8, i64 %12
  %14 = getelementptr inbounds i8, ptr %13, i64 18
  %15 = call zeroext i16 @ttUSHORT(ptr noundef %14)
  %16 = zext i16 %15 to i32
  store i32 %16, ptr %5, align 4, !tbaa !14
  %17 = load float, ptr %4, align 4, !tbaa !67
  %18 = load i32, ptr %5, align 4, !tbaa !14
  %19 = sitofp i32 %18 to float
  %20 = fdiv float %17, %19
  call void @llvm.lifetime.end.p0(i64 4, ptr %5) #8
  ret float %20
}