; Function Attrs: mustprogress nofree norecurse nosync nounwind willreturn memory(read, inaccessiblemem: none) uwtable
define float @stbtt_ScaleForMappingEmToPixels(ptr noundef readonly captures(none) %0, float noundef %1) local_unnamed_addr #1 {
  %3 = getelementptr inbounds nuw i8, ptr %0, i64 8
  %4 = load ptr, ptr %3, align 8, !tbaa !23
  %5 = getelementptr inbounds nuw i8, ptr %0, i64 28
  %6 = load i32, ptr %5, align 4, !tbaa !26
  %7 = sext i32 %6 to i64
  %8 = getelementptr inbounds i8, ptr %4, i64 %7
  %9 = getelementptr inbounds nuw i8, ptr %8, i64 18
  %10 = load i8, ptr %9, align 1, !tbaa !12
  %11 = zext i8 %10 to i16
  %12 = shl nuw i16 %11, 8
  %13 = getelementptr inbounds nuw i8, ptr %8, i64 19
  %14 = load i8, ptr %13, align 1, !tbaa !12
  %15 = zext i8 %14 to i16
  %16 = or disjoint i16 %12, %15
  %17 = uitofp i16 %16 to float
  %18 = fdiv float %1, %17
  ret float %18
}